; Function Attrs: nounwind uwtable
define internal i32 @ftp_get_file_handle(ptr noundef readonly captures(none) %0) #0 {
  %2 = getelementptr inbounds nuw i8, ptr %0, i64 16
  %3 = load ptr, ptr %2, align 8, !tbaa !4
  %4 = getelementptr inbounds nuw i8, ptr %3, i64 16
  %5 = load ptr, ptr %4, align 8, !tbaa !24
  %.not = icmp eq ptr %5, null
  br i1 %.not, label %8, label %6

6:                                                ; preds = %1
  %7 = tail call i32 @ffurl_get_file_handle(ptr noundef nonnull %5) #10
  br label %8

8:                                                ; preds = %1, %6
  %.0 = phi i32 [ %7, %6 ], [ -5, %1 ]
  ret i32 %.0
}